C51 COMPILER V9.60.0.0   MAIN                                                              05/20/2022 10:41:09 PAGE 1   


C51 COMPILER V9.60.0.0, COMPILATION OF MODULE MAIN
OBJECT MODULE PLACED IN .\build\Debug\src\main.o
COMPILER INVOKED BY: C:\Program Files\Keil_v5\C51\BIN\C51.exe .\SRC\MAIN.C PRINT(.\build\Debug\src\main.lst) OMF2 TABS(4
                    -) CODE NOCOND SYMBOLS OPTIMIZE(8,SPEED) SMALL ROM(LARGE) INCDIR(.\..\..\..\..\..\..\Program Files\Keil_v5\C51\INC;.\src)
                    - DEFINE(__UVISION_VERSION=526) OBJECT(.\build\Debug\src\main.o)

line level    source

   1          #include <reg51.h>
   2          #define uchar unsigned char
   3          #define uint unsigned int
   4          sbit L1=P1^0;
   5          sbit L2=P1^1;
   6          sbit L3=P1^2;
   7          sbit L4=P1^3;          // ÂÆö‰πâ4Ê†πÂàóÁ∫ø //
   8           uchar  jyw[16]={0xc0,0xf9,0xa4,0xb0,            //Êï∞Á†ÅÁÆ°ÊòæÁ§∫ÂÄºÔºêÔºçÔº¶ÂØπÂ∫îÁöÑÊÆµÁ†ÅÂÄº//
   9                           0x99,0x92,0x82,0xf8,
  10                           0x80,0x90,0x88,0x83,
  11                           0xc6,0xa1,0x86,0x8e};
  12          
  13          void delayms(uchar ms)                   //Âª∂Êó∂Â≠êÁ®ãÂ∫è//
  14           {
  15   1         uint j;
  16   1         while(ms--)
  17   1         for(j=0;j<123;j++);
  18   1       }
  19          
  20             main()                      //‰∏ªÁ®ãÂ∫è//
  21             {
  22   1          uchar temp;
  23   1          uchar i;
  24   1          while(1)
  25   1         {
  26   2                        P1=0xef;             //Ë°åÊâ´ÊèèÂàùÂÄº//       1110 1111
  27   2                        for(i=0;i<=3;i++)  //ÊåâÈîÆÈòµË°åÊâ´Êèè,‰∏ÄÂÖ±ÂõõË°å //
  28   2                      {  
  29   3                         if (L1==0) P0=jyw[i*4+0];        //Ê£ÄÊµãÁ¨¨‰∏ÄÂàóÊúâÊó†ÊåâÈîÆÊåâ‰∏ãÔºåËã•ÊúâÔºåÂØπÂ∫îÁöÑÈîÆÂÄºÂàÜÂ
             -à´‰∏∫0Ôºà‰∏ÄË°åÔºâ,4Ôºà‰∫åË°åÔºâ,8Ôºà‰∏âË°åÔºâÔºåCÔºàÂõõË°åÔºâ//
  30   3                         if (L2==0) P0=jyw[i*4+1];        //Ê£ÄÊµãÁ¨¨‰∫åÂàóÊúâÊó†ÊåâÈîÆÊåâ‰∏ãÔºåËã•ÊúâÔºåÂØπÂ∫îÁ
             -öÑÈîÆÂÄºÂàÜÂà´‰∏∫1Ôºà‰∏ÄË°åÔºâ,5Ôºà‰∫åË°åÔºâ,9Ôºà‰∏âË°åÔºâÔºådÔºàÂõõË°åÔºâ//
  31   3                         if (L3==0) P0=jyw[i*4+2];        //Ê£ÄÊµãÁ¨¨‰∏âÂàóÊúâÊó†ÊåâÈîÆÊåâ‰∏ãÔºåËã•ÊúâÔºåÂØπÂ∫îÁ
             -öÑÈîÆÂÄºÂàÜÂà´‰∏∫2Ôºà‰∏ÄË°åÔºâ,6Ôºà‰∫åË°åÔºâ,AÔºà‰∏âË°åÔºâÔºåEÔºàÂõõË°åÔºâ//
  32   3                         if (L4==0) P0=jyw[i*4+3];        //Ê£ÄÊµãÁ¨¨ÂõõÂàóÊúâÊó†ÊåâÈîÆÊåâ‰∏ãÔºåËã•ÊúâÔºåÂØπÂ∫îÁ
             -öÑÈîÆÂÄºÂàÜÂà´‰∏∫3Ôºà‰∏ÄË°åÔºâ,7Ôºà‰∫åË°åÔºâ,bÔºà‰∏âË°åÔºâÔºåFÔºàÂõõË°åÔºâ//
  33   3                         delayms(10);
  34   3                         temp=P1;                         //temp=1110 1111
  35   3                         temp=temp|0x0f;                  //temp=1110 1111
  36   3                         temp=temp<<1;                    // temp=1101 1110
  37   3                         temp=temp|0x0f;                  // temp=1101 1111
  38   3                         P1=temp;                       //‰∏ã‰∏ÄË°åË°åÊâ´ÊèèÁöÑÂÄºÔºåÂ∞ÜP1.0-P1.3ÁöÑÂÄºÂ∑¶Áßª‰∏Ä
             -‰Ωç//    P1=1101 1111
  39   3      
  40   3                      }
  41   2      
  42   2                  }
  43   1      }
C51 COMPILER V9.60.0.0   MAIN                                                              05/20/2022 10:41:09 PAGE 2   

ASSEMBLY LISTING OF GENERATED OBJECT CODE


             ; FUNCTION _delayms (BEGIN)
                                           ; SOURCE LINE # 13
;---- Variable 'j' assigned to Register 'R4/R5' ----
;---- Variable 'ms' assigned to Register 'R7' ----
                                           ; SOURCE LINE # 14
0000         ?C0001:
                                           ; SOURCE LINE # 16
0000 AE07              MOV     R6,AR7
0002 1F                DEC     R7
0003 EE                MOV     A,R6
0004 6013              JZ      ?C0006
                                           ; SOURCE LINE # 17
0006 E4                CLR     A
0007 FC                MOV     R4,A
0008 FD                MOV     R5,A
0009         ?C0003:
0009 C3                CLR     C
000A ED                MOV     A,R5
000B 947B              SUBB    A,#07BH
000D EC                MOV     A,R4
000E 9400              SUBB    A,#00H
0010 50EE              JNC     ?C0001
0012 0D                INC     R5
0013 BD0001            CJNE    R5,#00H,?C0017
0016 0C                INC     R4
0017         ?C0017:
0017 80F0              SJMP    ?C0003
                                           ; SOURCE LINE # 18
0019         ?C0006:
0019 22                RET     
             ; FUNCTION _delayms (END)

             ; FUNCTION main (BEGIN)
                                           ; SOURCE LINE # 20
                                           ; SOURCE LINE # 21
0000         ?C0007:
                                           ; SOURCE LINE # 24
                                           ; SOURCE LINE # 25
                                           ; SOURCE LINE # 26
0000 7590EF            MOV     P1,#0EFH
                                           ; SOURCE LINE # 27
;---- Variable 'i' assigned to Register 'R3' ----
0003 E4                CLR     A
0004 FB                MOV     R3,A
0005         ?C0009:
0005 EB                MOV     A,R3
0006 D3                SETB    C
0007 9403              SUBB    A,#03H
0009 7480              MOV     A,#080H
000B 9480              SUBB    A,#080H
000D 50F1              JNC     ?C0007
                                           ; SOURCE LINE # 28
                                           ; SOURCE LINE # 29
000F 20900B            JB      L1,?C0012
0012 EB                MOV     A,R3
0013 25E0              ADD     A,ACC
0015 25E0              ADD     A,ACC
0017 2400        R     ADD     A,#LOW jyw
0019 F8                MOV     R0,A
C51 COMPILER V9.60.0.0   MAIN                                                              05/20/2022 10:41:09 PAGE 3   

001A E6                MOV     A,@R0
001B F580              MOV     P0,A
001D         ?C0012:
                                           ; SOURCE LINE # 30
001D 20910B            JB      L2,?C0013
0020 EB                MOV     A,R3
0021 25E0              ADD     A,ACC
0023 25E0              ADD     A,ACC
0025 2400        R     ADD     A,#LOW jyw+01H
0027 F8                MOV     R0,A
0028 E6                MOV     A,@R0
0029 F580              MOV     P0,A
002B         ?C0013:
                                           ; SOURCE LINE # 31
002B 20920B            JB      L3,?C0014
002E EB                MOV     A,R3
002F 25E0              ADD     A,ACC
0031 25E0              ADD     A,ACC
0033 2400        R     ADD     A,#LOW jyw+02H
0035 F8                MOV     R0,A
0036 E6                MOV     A,@R0
0037 F580              MOV     P0,A
0039         ?C0014:
                                           ; SOURCE LINE # 32
0039 20930B            JB      L4,?C0015
003C EB                MOV     A,R3
003D 25E0              ADD     A,ACC
003F 25E0              ADD     A,ACC
0041 2400        R     ADD     A,#LOW jyw+03H
0043 F8                MOV     R0,A
0044 E6                MOV     A,@R0
0045 F580              MOV     P0,A
0047         ?C0015:
                                           ; SOURCE LINE # 33
0047 7F0A              MOV     R7,#0AH
0049 120000      R     LCALL   _delayms
                                           ; SOURCE LINE # 34
;---- Variable 'temp' assigned to Register 'R7' ----
004C AF90              MOV     R7,P1
                                           ; SOURCE LINE # 35
004E 43070F            ORL     AR7,#0FH
                                           ; SOURCE LINE # 36
0051 EF                MOV     A,R7
0052 25E0              ADD     A,ACC
0054 FF                MOV     R7,A
                                           ; SOURCE LINE # 37
0055 43070F            ORL     AR7,#0FH
                                           ; SOURCE LINE # 38
0058 8F90              MOV     P1,R7
                                           ; SOURCE LINE # 40
005A 0B                INC     R3
005B 80A8              SJMP    ?C0009
             ; FUNCTION main (END)

C51 COMPILER V9.60.0.0   MAIN                                                              05/20/2022 10:41:09 PAGE 4   

NAME                                    CLASS   MSPACE  TYPE    OFFSET  SIZE
====                                    =====   ======  ====    ======  ====


L3 . . . . . . . . . . . . . . . . . .  ABSBIT   -----  BIT      0092H  1
L4 . . . . . . . . . . . . . . . . . .  ABSBIT   -----  BIT      0093H  1
P0 . . . . . . . . . . . . . . . . . .  SFR      DATA   U_CHAR   0080H  1
P1 . . . . . . . . . . . . . . . . . .  SFR      DATA   U_CHAR   0090H  1
P2 . . . . . . . . . . . . . . . . . .  SFR      DATA   U_CHAR   00A0H  1
P3 . . . . . . . . . . . . . . . . . .  SFR      DATA   U_CHAR   00B0H  1
T0 . . . . . . . . . . . . . . . . . .  ABSBIT   -----  BIT      00B4H  1
AC . . . . . . . . . . . . . . . . . .  ABSBIT   -----  BIT      00D6H  1
T1 . . . . . . . . . . . . . . . . . .  ABSBIT   -----  BIT      00B5H  1
EA . . . . . . . . . . . . . . . . . .  ABSBIT   -----  BIT      00AFH  1
IE . . . . . . . . . . . . . . . . . .  SFR      DATA   U_CHAR   00A8H  1
RD . . . . . . . . . . . . . . . . . .  ABSBIT   -----  BIT      00B7H  1
ES . . . . . . . . . . . . . . . . . .  ABSBIT   -----  BIT      00ACH  1
IP . . . . . . . . . . . . . . . . . .  SFR      DATA   U_CHAR   00B8H  1
RI . . . . . . . . . . . . . . . . . .  ABSBIT   -----  BIT      0098H  1
INT0 . . . . . . . . . . . . . . . . .  ABSBIT   -----  BIT      00B2H  1
CY . . . . . . . . . . . . . . . . . .  ABSBIT   -----  BIT      00D7H  1
TI . . . . . . . . . . . . . . . . . .  ABSBIT   -----  BIT      0099H  1
INT1 . . . . . . . . . . . . . . . . .  ABSBIT   -----  BIT      00B3H  1
PS . . . . . . . . . . . . . . . . . .  ABSBIT   -----  BIT      00BCH  1
SP . . . . . . . . . . . . . . . . . .  SFR      DATA   U_CHAR   0081H  1
OV . . . . . . . . . . . . . . . . . .  ABSBIT   -----  BIT      00D2H  1
main . . . . . . . . . . . . . . . . .  PUBLIC   CODE   PROC     0000H  -----
  temp . . . . . . . . . . . . . . . .  * REG *  DATA   U_CHAR   0007H  1
  i. . . . . . . . . . . . . . . . . .  * REG *  DATA   U_CHAR   0003H  1
WR . . . . . . . . . . . . . . . . . .  ABSBIT   -----  BIT      00B6H  1
SBUF . . . . . . . . . . . . . . . . .  SFR      DATA   U_CHAR   0099H  1
PCON . . . . . . . . . . . . . . . . .  SFR      DATA   U_CHAR   0087H  1
SCON . . . . . . . . . . . . . . . . .  SFR      DATA   U_CHAR   0098H  1
TMOD . . . . . . . . . . . . . . . . .  SFR      DATA   U_CHAR   0089H  1
TCON . . . . . . . . . . . . . . . . .  SFR      DATA   U_CHAR   0088H  1
IE0. . . . . . . . . . . . . . . . . .  ABSBIT   -----  BIT      0089H  1
IE1. . . . . . . . . . . . . . . . . .  ABSBIT   -----  BIT      008BH  1
B. . . . . . . . . . . . . . . . . . .  SFR      DATA   U_CHAR   00F0H  1
ACC. . . . . . . . . . . . . . . . . .  SFR      DATA   U_CHAR   00E0H  1
ET0. . . . . . . . . . . . . . . . . .  ABSBIT   -----  BIT      00A9H  1
ET1. . . . . . . . . . . . . . . . . .  ABSBIT   -----  BIT      00ABH  1
TF0. . . . . . . . . . . . . . . . . .  ABSBIT   -----  BIT      008DH  1
TF1. . . . . . . . . . . . . . . . . .  ABSBIT   -----  BIT      008FH  1
RB8. . . . . . . . . . . . . . . . . .  ABSBIT   -----  BIT      009AH  1
TH0. . . . . . . . . . . . . . . . . .  SFR      DATA   U_CHAR   008CH  1
EX0. . . . . . . . . . . . . . . . . .  ABSBIT   -----  BIT      00A8H  1
IT0. . . . . . . . . . . . . . . . . .  ABSBIT   -----  BIT      0088H  1
TH1. . . . . . . . . . . . . . . . . .  SFR      DATA   U_CHAR   008DH  1
TB8. . . . . . . . . . . . . . . . . .  ABSBIT   -----  BIT      009BH  1
EX1. . . . . . . . . . . . . . . . . .  ABSBIT   -----  BIT      00AAH  1
IT1. . . . . . . . . . . . . . . . . .  ABSBIT   -----  BIT      008AH  1
P. . . . . . . . . . . . . . . . . . .  ABSBIT   -----  BIT      00D0H  1
SM0. . . . . . . . . . . . . . . . . .  ABSBIT   -----  BIT      009FH  1
TL0. . . . . . . . . . . . . . . . . .  SFR      DATA   U_CHAR   008AH  1
SM1. . . . . . . . . . . . . . . . . .  ABSBIT   -----  BIT      009EH  1
TL1. . . . . . . . . . . . . . . . . .  SFR      DATA   U_CHAR   008BH  1
SM2. . . . . . . . . . . . . . . . . .  ABSBIT   -----  BIT      009DH  1
PT0. . . . . . . . . . . . . . . . . .  ABSBIT   -----  BIT      00B9H  1
PT1. . . . . . . . . . . . . . . . . .  ABSBIT   -----  BIT      00BBH  1
RS0. . . . . . . . . . . . . . . . . .  ABSBIT   -----  BIT      00D3H  1
TR0. . . . . . . . . . . . . . . . . .  ABSBIT   -----  BIT      008CH  1
C51 COMPILER V9.60.0.0   MAIN                                                              05/20/2022 10:41:09 PAGE 5   

NAME                                    CLASS   MSPACE  TYPE    OFFSET  SIZE
====                                    =====   ======  ====    ======  ====


RS1. . . . . . . . . . . . . . . . . .  ABSBIT   -----  BIT      00D4H  1
TR1. . . . . . . . . . . . . . . . . .  ABSBIT   -----  BIT      008EH  1
PX0. . . . . . . . . . . . . . . . . .  ABSBIT   -----  BIT      00B8H  1
PX1. . . . . . . . . . . . . . . . . .  ABSBIT   -----  BIT      00BAH  1
jyw. . . . . . . . . . . . . . . . . .  PUBLIC   DATA   ARRAY    0000H  16
DPH. . . . . . . . . . . . . . . . . .  SFR      DATA   U_CHAR   0083H  1
DPL. . . . . . . . . . . . . . . . . .  SFR      DATA   U_CHAR   0082H  1
REN. . . . . . . . . . . . . . . . . .  ABSBIT   -----  BIT      009CH  1
RXD. . . . . . . . . . . . . . . . . .  ABSBIT   -----  BIT      00B0H  1
TXD. . . . . . . . . . . . . . . . . .  ABSBIT   -----  BIT      00B1H  1
_delayms . . . . . . . . . . . . . . .  PUBLIC   CODE   PROC     0000H  -----
  ms . . . . . . . . . . . . . . . . .  * REG *  DATA   U_CHAR   0007H  1
  j. . . . . . . . . . . . . . . . . .  * REG *  DATA   U_INT    0004H  2
F0 . . . . . . . . . . . . . . . . . .  ABSBIT   -----  BIT      00D5H  1
PSW. . . . . . . . . . . . . . . . . .  SFR      DATA   U_CHAR   00D0H  1
L1 . . . . . . . . . . . . . . . . . .  ABSBIT   -----  BIT      0090H  1
L2 . . . . . . . . . . . . . . . . . .  ABSBIT   -----  BIT      0091H  1


MODULE INFORMATION:   STATIC OVERLAYABLE
   CODE SIZE        =    119    ----
   CONSTANT SIZE    =   ----    ----
   XDATA SIZE       =   ----    ----
   PDATA SIZE       =   ----    ----
   DATA SIZE        =     16    ----
   IDATA SIZE       =   ----    ----
   BIT SIZE         =   ----    ----
   EDATA SIZE       =   ----    ----
   HDATA SIZE       =   ----    ----
   XDATA CONST SIZE =   ----    ----
   FAR CONST SIZE   =   ----    ----
END OF MODULE INFORMATION.


C51 COMPILATION COMPLETE.  0 WARNING(S),  0 ERROR(S)
